; Function Attrs: mustprogress uwtable
define void @_ZNK32pxrInternal_v0_24__pxrReserved__19HdDataSourceLocator9GetStringB5cxx11EPKc(ptr dead_on_unwind noalias writable sret(%"class.std::__cxx11::basic_string") align 8 %0, ptr nocapture noundef nonnull readonly align 8 dereferenceable(56) %1, ptr noundef %2) local_unnamed_addr #0 align 2 personality ptr @__gxx_personality_v0 {
  %4 = alloca %"class.std::__cxx11::basic_ostringstream", align 8
  %5 = getelementptr inbounds nuw i8, ptr %1, i64 48
  %6 = load i32, ptr %5, align 8
  %7 = icmp eq i32 %6, 0
  br i1 %7, label %8, label %9

8:                                                ; preds = %3
  tail call void @_ZNSt7__cxx1112basic_stringIcSt11char_traitsIcESaIcEEC1Ev(ptr noundef nonnull align 8 dereferenceable(32) %0) #19
  br label %50

9:                                                ; preds = %3
  call void @_ZNSt7__cxx1119basic_ostringstreamIcSt11char_traitsIcESaIcEEC1Ev(ptr noundef nonnull align 8 dereferenceable(112) %4)
  %10 = load i32, ptr %5, align 8
  %11 = zext i32 %10 to i64
  %12 = add nsw i64 %11, -1
  %.not = icmp eq i64 %12, 0
  br i1 %.not, label %._crit_edge, label %.lr.ph

.lr.ph:                                           ; preds = %9
  %13 = getelementptr inbounds nuw i8, ptr %1, i64 52
  br label %14

14:                                               ; preds = %.lr.ph, %30
  %.010 = phi i64 [ 0, %.lr.ph ], [ %31, %30 ]
  %15 = load i32, ptr %13, align 4
  %16 = icmp ult i32 %15, 7
  %17 = load ptr, ptr %1, align 8
  %spec.select.i.i.i = select i1 %16, ptr %1, ptr %17
  %18 = getelementptr inbounds %"class.pxrInternal_v0_24__pxrReserved__::TfToken", ptr %spec.select.i.i.i, i64 %.010
  %19 = load ptr, ptr %18, align 8
  %20 = ptrtoint ptr %19 to i64
  %21 = and i64 %20, -8
  %.not.i.i = icmp eq i64 %21, 0
  br i1 %.not.i.i, label %_ZNK32pxrInternal_v0_24__pxrReserved__7TfToken4dataEv.exit, label %22

22:                                               ; preds = %14
  %23 = inttoptr i64 %21 to ptr
  %24 = getelementptr inbounds nuw i8, ptr %23, i64 16
  %25 = call noundef ptr @_ZNKSt7__cxx1112basic_stringIcSt11char_traitsIcESaIcEE5c_strEv(ptr noundef nonnull align 8 dereferenceable(32) %24) #19
  br label %_ZNK32pxrInternal_v0_24__pxrReserved__7TfToken4dataEv.exit

_ZNK32pxrInternal_v0_24__pxrReserved__7TfToken4dataEv.exit: ; preds = %22, %14
  %26 = phi ptr [ %25, %22 ], [ @.str.10, %14 ]
  %27 = invoke noundef nonnull align 8 dereferenceable(8) ptr @_ZStlsISt11char_traitsIcEERSt13basic_ostreamIcT_ES5_PKc(ptr noundef nonnull align 8 dereferenceable(8) %4, ptr noundef %26)
          to label %28 unwind label %.loopexit

28:                                               ; preds = %_ZNK32pxrInternal_v0_24__pxrReserved__7TfToken4dataEv.exit
  %29 = invoke noundef nonnull align 8 dereferenceable(8) ptr @_ZStlsISt11char_traitsIcEERSt13basic_ostreamIcT_ES5_PKc(ptr noundef nonnull align 8 dereferenceable(8) %27, ptr noundef %2)
          to label %30 unwind label %.loopexit

30:                                               ; preds = %28
  %31 = add nuw i64 %.010, 1
  %exitcond.not = icmp eq i64 %31, %12
  br i1 %exitcond.not, label %._crit_edge.loopexit, label %14, !llvm.loop !15

.loopexit:                                        ; preds = %_ZNK32pxrInternal_v0_24__pxrReserved__7TfToken4dataEv.exit, %28
  %lpad.loopexit = landingpad { ptr, i32 }
          cleanup
  br label %32

.loopexit.split-lp:                               ; preds = %_ZNK32pxrInternal_v0_24__pxrReserved__7TfToken4dataEv.exit9, %48
  %lpad.loopexit.split-lp = landingpad { ptr, i32 }
          cleanup
  br label %32

32:                                               ; preds = %.loopexit.split-lp, %.loopexit
  %lpad.phi = phi { ptr, i32 } [ %lpad.loopexit, %.loopexit ], [ %lpad.loopexit.split-lp, %.loopexit.split-lp ]
  call void @_ZNSt7__cxx1119basic_ostringstreamIcSt11char_traitsIcESaIcEED1Ev(ptr noundef nonnull align 8 dereferenceable(112) %4) #19
  resume { ptr, i32 } %lpad.phi

._crit_edge.loopexit:                             ; preds = %30
  %.pre = load i32, ptr %5, align 8
  %.pre11 = zext i32 %.pre to i64
  br label %._crit_edge

._crit_edge:                                      ; preds = %._crit_edge.loopexit, %9
  %.pre-phi = phi i64 [ %.pre11, %._crit_edge.loopexit ], [ 1, %9 ]
  %33 = getelementptr inbounds nuw i8, ptr %1, i64 52
  %34 = load i32, ptr %33, align 4
  %35 = icmp ult i32 %34, 7
  %36 = load ptr, ptr %1, align 8
  %spec.select.i.i.i7 = select i1 %35, ptr %1, ptr %36
  %37 = getelementptr %"class.pxrInternal_v0_24__pxrReserved__::TfToken", ptr %spec.select.i.i.i7, i64 %.pre-phi
  %38 = getelementptr i8, ptr %37, i64 -8
  %39 = load ptr, ptr %38, align 8
  %40 = ptrtoint ptr %39 to i64
  %41 = and i64 %40, -8
  %.not.i.i8 = icmp eq i64 %41, 0
  br i1 %.not.i.i8, label %_ZNK32pxrInternal_v0_24__pxrReserved__7TfToken4dataEv.exit9, label %42

42:                                               ; preds = %._crit_edge
  %43 = inttoptr i64 %41 to ptr
  %44 = getelementptr inbounds nuw i8, ptr %43, i64 16
  %45 = call noundef ptr @_ZNKSt7__cxx1112basic_stringIcSt11char_traitsIcESaIcEE5c_strEv(ptr noundef nonnull align 8 dereferenceable(32) %44) #19
  br label %_ZNK32pxrInternal_v0_24__pxrReserved__7TfToken4dataEv.exit9

_ZNK32pxrInternal_v0_24__pxrReserved__7TfToken4dataEv.exit9: ; preds = %42, %._crit_edge
  %46 = phi ptr [ %45, %42 ], [ @.str.10, %._crit_edge ]
  %47 = invoke noundef nonnull align 8 dereferenceable(8) ptr @_ZStlsISt11char_traitsIcEERSt13basic_ostreamIcT_ES5_PKc(ptr noundef nonnull align 8 dereferenceable(8) %4, ptr noundef %46)
          to label %48 unwind label %.loopexit.split-lp

48:                                               ; preds = %_ZNK32pxrInternal_v0_24__pxrReserved__7TfToken4dataEv.exit9
  invoke void @_ZNKSt7__cxx1119basic_ostringstreamIcSt11char_traitsIcESaIcEE3strEv(ptr dead_on_unwind writable sret(%"class.std::__cxx11::basic_string") align 8 %0, ptr noundef nonnull align 8 dereferenceable(112) %4)
          to label %49 unwind label %.loopexit.split-lp

49:                                               ; preds = %48
  call void @_ZNSt7__cxx1119basic_ostringstreamIcSt11char_traitsIcESaIcEED1Ev(ptr noundef nonnull align 8 dereferenceable(112) %4) #19
  br label %50

50:                                               ; preds = %49, %8
  ret void
}